target datalayout = "e-m:e-p270:32:32-p271:32:32-p272:64:64-i64:64-i128:128-f80:128-n8:16:32:64-S128"
target triple = "x86_64-pc-linux-gnu"

; Function Attrs: mustprogress nounwind uwtable
define noundef zeroext i1 @_ZN4base25PersistentMemoryAllocator18IsMemoryAcceptableEPKvmmb(ptr noundef %0, i64 noundef %1, i64 noundef %2, i1 noundef zeroext %3) #0 align 2 {
  %5 = alloca ptr, align 8
  %6 = alloca i64, align 8
  %7 = alloca i64, align 8
  %8 = alloca i8, align 1
  store ptr %0, ptr %5, align 8, !tbaa !44
  store i64 %1, ptr %6, align 8, !tbaa !45
  store i64 %2, ptr %7, align 8, !tbaa !45
  %9 = zext i1 %3 to i8
  store i8 %9, ptr %8, align 1, !tbaa !20
  %10 = load ptr, ptr %5, align 8, !tbaa !44
  %11 = icmp ne ptr %10, null
  br i1 %11, label %12, label %43

12:                                               ; preds = %4
  %13 = load ptr, ptr %5, align 8, !tbaa !44
  %14 = ptrtoint ptr %13 to i64
  %15 = urem i64 %14, 8
  %16 = icmp eq i64 %15, 0
  br i1 %16, label %17, label %43

17:                                               ; preds = %12
  %18 = load i64, ptr %6, align 8, !tbaa !45
  %19 = icmp uge i64 %18, 56
  br i1 %19, label %20, label %43

20:                                               ; preds = %17
  %21 = load i64, ptr %6, align 8, !tbaa !45
  %22 = icmp ule i64 %21, 1073741824
  br i1 %22, label %23, label %43

23:                                               ; preds = %20
  %24 = load i64, ptr %6, align 8, !tbaa !45
  %25 = urem i64 %24, 8
  %26 = icmp eq i64 %25, 0
  br i1 %26, label %30, label %27

27:                                               ; preds = %23
  %28 = load i8, ptr %8, align 1, !tbaa !20, !range !22, !noundef !23
  %29 = trunc i8 %28 to i1
  br i1 %29, label %30, label %43

30:                                               ; preds = %27, %23
  %31 = load i64, ptr %7, align 8, !tbaa !45
  %32 = icmp eq i64 %31, 0
  br i1 %32, label %41, label %33

33:                                               ; preds = %30
  %34 = load i64, ptr %6, align 8, !tbaa !45
  %35 = load i64, ptr %7, align 8, !tbaa !45
  %36 = urem i64 %34, %35
  %37 = icmp eq i64 %36, 0
  br i1 %37, label %41, label %38

38:                                               ; preds = %33
  %39 = load i8, ptr %8, align 1, !tbaa !20, !range !22, !noundef !23
  %40 = trunc i8 %39 to i1
  br label %41

41:                                               ; preds = %38, %33, %30
  %42 = phi i1 [ true, %33 ], [ true, %30 ], [ %40, %38 ]
  br label %43

43:                                               ; preds = %41, %27, %20, %17, %12, %4
  %44 = phi i1 [ false, %27 ], [ false, %20 ], [ false, %17 ], [ false, %12 ], [ false, %4 ], [ %42, %41 ]
  ret i1 %44
}