; Function Attrs: mustprogress nofree norecurse nosync nounwind willreturn memory(none) uwtable
define noundef zeroext i1 @_ZN4base25PersistentMemoryAllocator18IsMemoryAcceptableEPKvmmb(ptr noundef %0, i64 noundef %1, i64 noundef %2, i1 noundef zeroext %3) local_unnamed_addr #4 align 2 {
  %.not = icmp eq ptr %0, null
  br i1 %.not, label %19, label %5

5:                                                ; preds = %4
  %6 = ptrtoint ptr %0 to i64
  %7 = and i64 %6, 7
  %8 = icmp eq i64 %7, 0
  %9 = add i64 %1, -56
  %10 = icmp ult i64 %9, 1073741769
  %or.cond3 = and i1 %8, %10
  br i1 %or.cond3, label %11, label %19

11:                                               ; preds = %5
  %12 = and i64 %1, 7
  %13 = icmp eq i64 %12, 0
  %brmerge = or i1 %13, %3
  br i1 %brmerge, label %14, label %19

14:                                               ; preds = %11
  %15 = icmp eq i64 %2, 0
  br i1 %15, label %19, label %16

16:                                               ; preds = %14
  %17 = urem i64 %1, %2
  %18 = icmp eq i64 %17, 0
  %spec.select = or i1 %3, %18
  br label %19

19:                                               ; preds = %16, %11, %14, %5, %4
  %20 = phi i1 [ false, %5 ], [ false, %4 ], [ true, %14 ], [ false, %11 ], [ %spec.select, %16 ]
  ret i1 %20
}